;--------------------------------------------------------
; File Created by SDCC : free open source ANSI-C Compiler
; Version 4.1.6 #12539 (MINGW32)
;--------------------------------------------------------
	.module main
	.optsdcc -mgbz80
	
;--------------------------------------------------------
; Public variables in this module
;--------------------------------------------------------
	.globl _main
	.globl _Draw
	.globl _Update
	.globl _Load
	.globl _playerDraw
	.globl _playerUpdate
	.globl _playerLoad
	.globl _set_sprite_data
	.globl _set_bkg_tiles
	.globl _set_bkg_data
	.globl _joypad
	.globl _delay
	.globl _player_sprites
	.globl _map2
	.globl _map1
	.globl _tileset
	.globl _player
	.globl _entity
;--------------------------------------------------------
; special function registers
;--------------------------------------------------------
;--------------------------------------------------------
; ram data
;--------------------------------------------------------
	.area _DATA
_entity::
	.ds 8
_player::
	.ds 8
;--------------------------------------------------------
; ram data
;--------------------------------------------------------
	.area _INITIALIZED
_tileset::
	.ds 112
_map1::
	.ds 360
_map2::
	.ds 360
_player_sprites::
	.ds 80
;--------------------------------------------------------
; absolute external ram data
;--------------------------------------------------------
	.area _DABS (ABS)
;--------------------------------------------------------
; global & static initialisations
;--------------------------------------------------------
	.area _HOME
	.area _GSINIT
	.area _GSFINAL
	.area _GSINIT
;--------------------------------------------------------
; Home
;--------------------------------------------------------
	.area _HOME
	.area _HOME
;--------------------------------------------------------
; code
;--------------------------------------------------------
	.area _CODE
;src/player.c:15: void playerLoad(){
;	---------------------------------
; Function playerLoad
; ---------------------------------
_playerLoad::
;src/player.c:16: player.x = 0;
	ld	hl, #(_player + 1)
	ld	(hl), #0x00
;src/player.c:17: player.y = 0;
	ld	hl, #(_player + 2)
	ld	(hl), #0x00
;src/player.c:18: player.w, player.h = 8;
	ld	hl, #(_player + 4)
	ld	(hl), #0x08
;src/player.c:19: player.speed = 8;
	ld	hl, #(_player + 7)
	ld	(hl), #0x08
;src/player.c:20: player.dx, player.dy = 0;
	ld	hl, #(_player + 6)
	ld	(hl), #0x00
;src/player.c:22: set_sprite_data(0, 4, player_sprites);
	ld	de, #_player_sprites
	push	de
	ld	hl, #0x400
	push	hl
	call	_set_sprite_data
	add	sp, #4
;src/player.c:23: }
	ret
;src/player.c:25: void playerUpdate(){
;	---------------------------------
; Function playerUpdate
; ---------------------------------
_playerUpdate::
;src/player.c:27: if(joypad() == J_UP && player.y > 0){
	call	_joypad
	ld	a, e
	sub	a, #0x04
	jr	NZ, 00106$
	ld	a, (#(_player + 2) + 0)
	or	a, a
	jr	Z, 00106$
;src/player.c:28: player.dy = - player.speed;
	ld	hl, #_player + 7
	ld	c, (hl)
	xor	a, a
	sub	a, c
	ld	c, a
	ld	hl, #(_player + 6)
	ld	(hl), c
;src/player.c:29: player.sp = 3;
	ld	hl, #_player
	ld	(hl), #0x03
	jr	00107$
00106$:
;src/player.c:30: }else if(joypad() == J_DOWN && player.y < (8 * 12)){
	call	_joypad
	ld	a, e
	sub	a, #0x08
	jr	NZ, 00102$
	ld	a, (#(_player + 2) + 0)
	sub	a, #0x60
	jr	NC, 00102$
;src/player.c:31: player.dy = player.speed;
	ld	bc, #_player + 6
	ld	a, (#(_player + 7) + 0)
	ld	(bc), a
;src/player.c:32: player.sp = 0;
	ld	hl, #_player
	ld	(hl), #0x00
	jr	00107$
00102$:
;src/player.c:34: player.dy = 0;
	ld	hl, #(_player + 6)
	ld	(hl), #0x00
00107$:
;src/player.c:37: if(joypad() == J_LEFT && player.x > 0){
	call	_joypad
	ld	a, e
	sub	a, #0x02
	jr	NZ, 00114$
	ld	a, (#(_player + 1) + 0)
	or	a, a
	jr	Z, 00114$
;src/player.c:38: player.dx = - player.speed;
	ld	hl, #_player + 7
	ld	c, (hl)
	xor	a, a
	sub	a, c
	ld	c, a
	ld	hl, #(_player + 5)
	ld	(hl), c
;src/player.c:39: player.sp = 1;
	ld	hl, #_player
	ld	(hl), #0x01
	jr	00115$
00114$:
;src/player.c:40: }else if(joypad() == J_RIGHT && player.x < (8 * 19)){
	call	_joypad
	dec	e
	jr	NZ, 00110$
	ld	a, (#(_player + 1) + 0)
	sub	a, #0x98
	jr	NC, 00110$
;src/player.c:41: player.dx = player.speed;
	ld	bc, #_player + 5
	ld	a, (#(_player + 7) + 0)
	ld	(bc), a
;src/player.c:42: player.sp = 2;
	ld	hl, #_player
	ld	(hl), #0x02
	jr	00115$
00110$:
;src/player.c:44: player.dx = 0;
	ld	hl, #(_player + 5)
	ld	(hl), #0x00
00115$:
;src/player.c:47: move_sprite(0, player.x + 8, player.y + 16);
	ld	a, (#(_player + 2) + 0)
	add	a, #0x10
	ld	b, a
	ld	a, (#(_player + 1) + 0)
	add	a, #0x08
	ld	c, a
;c:/gbdk/include/gb/gb.h:1520: OAM_item_t * itm = &shadow_OAM[nb];
	ld	hl, #_shadow_OAM
;c:/gbdk/include/gb/gb.h:1521: itm->y=y, itm->x=x;
	ld	a, b
	ld	(hl+), a
	ld	(hl), c
;src/player.c:49: player.x += player.dx;
	ld	hl, #(_player + 1)
	ld	c, (hl)
	ld	a, (#(_player + 5) + 0)
	add	a, c
	ld	(#(_player + 1)),a
;src/player.c:50: player.y += player.dy;
	ld	hl, #(_player + 2)
	ld	c, (hl)
	ld	a, (#(_player + 6) + 0)
	add	a, c
	ld	(#(_player + 2)),a
;src/player.c:51: }
	ret
;src/player.c:53: void playerDraw(){
;	---------------------------------
; Function playerDraw
; ---------------------------------
_playerDraw::
;src/player.c:54: set_sprite_tile(0, player.sp);
	ld	hl, #_player
	ld	c, (hl)
;c:/gbdk/include/gb/gb.h:1447: shadow_OAM[nb].tile=tile;
	ld	hl, #(_shadow_OAM + 2)
	ld	(hl), c
;src/player.c:54: set_sprite_tile(0, player.sp);
;src/player.c:55: }
	ret
;main.c:10: void Load(){
;	---------------------------------
; Function Load
; ---------------------------------
_Load::
;main.c:11: set_bkg_data(0, 7, tileset);
	ld	de, #_tileset
	push	de
	ld	hl, #0x700
	push	hl
	call	_set_bkg_data
	add	sp, #4
;main.c:12: playerLoad();
	call	_playerLoad
;main.c:14: SHOW_SPRITES;
	ldh	a, (_LCDC_REG + 0)
	or	a, #0x02
	ldh	(_LCDC_REG + 0), a
;main.c:15: SHOW_BKG;
	ldh	a, (_LCDC_REG + 0)
	or	a, #0x01
	ldh	(_LCDC_REG + 0), a
;main.c:16: DISPLAY_ON;
	ldh	a, (_LCDC_REG + 0)
	or	a, #0x80
	ldh	(_LCDC_REG + 0), a
;main.c:18: }
	ret
;main.c:20: void Update(){
;	---------------------------------
; Function Update
; ---------------------------------
_Update::
;main.c:25: set_bkg_tiles(0, 0, map1Width, map1Height, map1); // map 1
	ld	de, #_map1
	push	de
	ld	hl, #0x1214
	push	hl
	xor	a, a
	rrca
	push	af
	call	_set_bkg_tiles
	add	sp, #6
;main.c:26: playerUpdate();
	call	_playerUpdate
;main.c:28: delay(70);
	ld	de, #0x0046
	push	de
	call	_delay
	pop	hl
;main.c:29: }
	ret
;main.c:31: void Draw(){
;	---------------------------------
; Function Draw
; ---------------------------------
_Draw::
;main.c:32: playerDraw();
;main.c:33: }
	jp	_playerDraw
;main.c:35: void main(){
;	---------------------------------
; Function main
; ---------------------------------
_main::
;main.c:36: Load();
	call	_Load
;main.c:38: while(1){
00102$:
;main.c:39: Update();
	call	_Update
;main.c:40: Draw();
	call	_Draw
;main.c:44: }
	jr	00102$
	.area _CODE
	.area _INITIALIZER
__xinit__tileset:
	.db #0x00	; 0
	.db #0x00	; 0
	.db #0x00	; 0
	.db #0x00	; 0
	.db #0x00	; 0
	.db #0x00	; 0
	.db #0x00	; 0
	.db #0x00	; 0
	.db #0x00	; 0
	.db #0x00	; 0
	.db #0x00	; 0
	.db #0x00	; 0
	.db #0x00	; 0
	.db #0x00	; 0
	.db #0x00	; 0
	.db #0x00	; 0
	.db #0xa0	; 160
	.db #0x00	; 0
	.db #0x40	; 64
	.db #0x00	; 0
	.db #0x40	; 64
	.db #0x00	; 0
	.db #0x0a	; 10
	.db #0x00	; 0
	.db #0x04	; 4
	.db #0x00	; 0
	.db #0x04	; 4
	.db #0x00	; 0
	.db #0x00	; 0
	.db #0x00	; 0
	.db #0x00	; 0
	.db #0x00	; 0
	.db #0x00	; 0
	.db #0x00	; 0
	.db #0x00	; 0
	.db #0x00	; 0
	.db #0x40	; 64
	.db #0x00	; 0
	.db #0x00	; 0
	.db #0x00	; 0
	.db #0x00	; 0
	.db #0x00	; 0
	.db #0x04	; 4
	.db #0x00	; 0
	.db #0x00	; 0
	.db #0x00	; 0
	.db #0x00	; 0
	.db #0x00	; 0
	.db #0x00	; 0
	.db #0x00	; 0
	.db #0x00	; 0
	.db #0x00	; 0
	.db #0x00	; 0
	.db #0x00	; 0
	.db #0x00	; 0
	.db #0x00	; 0
	.db #0x00	; 0
	.db #0x00	; 0
	.db #0x00	; 0
	.db #0x00	; 0
	.db #0x45	; 69	'E'
	.db #0x00	; 0
	.db #0xba	; 186
	.db #0x45	; 69	'E'
	.db #0x42	; 66	'B'
	.db #0x9c	; 156
	.db #0x21	; 33
	.db #0xc6	; 198
	.db #0x39	; 57	'9'
	.db #0xc2	; 194
	.db #0x04	; 4
	.db #0xfb	; 251
	.db #0x00	; 0
	.db #0x3f	; 63
	.db #0xc4	; 196
	.db #0x19	; 25
	.db #0x26	; 38
	.db #0xd8	; 216
	.db #0x01	; 1
	.db #0xfe	; 254
	.db #0x42	; 66	'B'
	.db #0x9c	; 156
	.db #0x21	; 33
	.db #0xc6	; 198
	.db #0x39	; 57	'9'
	.db #0xc2	; 194
	.db #0xae	; 174
	.db #0xfb	; 251
	.db #0x55	; 85	'U'
	.db #0x7f	; 127
	.db #0xee	; 238
	.db #0xbb	; 187
	.db #0xff	; 255
	.db #0xff	; 255
	.db #0xff	; 255
	.db #0xff	; 255
	.db #0xff	; 255
	.db #0xff	; 255
	.db #0xff	; 255
	.db #0xff	; 255
	.db #0xff	; 255
	.db #0xff	; 255
	.db #0xff	; 255
	.db #0xff	; 255
	.db #0xff	; 255
	.db #0xff	; 255
	.db #0xff	; 255
	.db #0xff	; 255
	.db #0xff	; 255
	.db #0xff	; 255
	.db #0xff	; 255
	.db #0xff	; 255
__xinit__map1:
	.db #0x01	; 1
	.db #0x01	; 1
	.db #0x01	; 1
	.db #0x00	; 0
	.db #0x00	; 0
	.db #0x00	; 0
	.db #0x00	; 0
	.db #0x00	; 0
	.db #0x00	; 0
	.db #0x01	; 1
	.db #0x01	; 1
	.db #0x01	; 1
	.db #0x00	; 0
	.db #0x00	; 0
	.db #0x00	; 0
	.db #0x02	; 2
	.db #0x02	; 2
	.db #0x02	; 2
	.db #0x01	; 1
	.db #0x01	; 1
	.db #0x01	; 1
	.db #0x01	; 1
	.db #0x00	; 0
	.db #0x00	; 0
	.db #0x01	; 1
	.db #0x01	; 1
	.db #0x00	; 0
	.db #0x00	; 0
	.db #0x00	; 0
	.db #0x00	; 0
	.db #0x00	; 0
	.db #0x00	; 0
	.db #0x01	; 1
	.db #0x02	; 2
	.db #0x00	; 0
	.db #0x02	; 2
	.db #0x01	; 1
	.db #0x02	; 2
	.db #0x01	; 1
	.db #0x01	; 1
	.db #0x01	; 1
	.db #0x01	; 1
	.db #0x00	; 0
	.db #0x02	; 2
	.db #0x02	; 2
	.db #0x02	; 2
	.db #0x01	; 1
	.db #0x01	; 1
	.db #0x02	; 2
	.db #0x00	; 0
	.db #0x00	; 0
	.db #0x02	; 2
	.db #0x01	; 1
	.db #0x01	; 1
	.db #0x00	; 0
	.db #0x02	; 2
	.db #0x02	; 2
	.db #0x02	; 2
	.db #0x01	; 1
	.db #0x02	; 2
	.db #0x01	; 1
	.db #0x01	; 1
	.db #0x00	; 0
	.db #0x02	; 2
	.db #0x02	; 2
	.db #0x02	; 2
	.db #0x02	; 2
	.db #0x02	; 2
	.db #0x02	; 2
	.db #0x00	; 0
	.db #0x01	; 1
	.db #0x02	; 2
	.db #0x01	; 1
	.db #0x02	; 2
	.db #0x00	; 0
	.db #0x01	; 1
	.db #0x02	; 2
	.db #0x02	; 2
	.db #0x02	; 2
	.db #0x02	; 2
	.db #0x01	; 1
	.db #0x02	; 2
	.db #0x00	; 0
	.db #0x02	; 2
	.db #0x01	; 1
	.db #0x01	; 1
	.db #0x02	; 2
	.db #0x02	; 2
	.db #0x02	; 2
	.db #0x02	; 2
	.db #0x01	; 1
	.db #0x01	; 1
	.db #0x02	; 2
	.db #0x02	; 2
	.db #0x00	; 0
	.db #0x01	; 1
	.db #0x02	; 2
	.db #0x02	; 2
	.db #0x02	; 2
	.db #0x02	; 2
	.db #0x01	; 1
	.db #0x02	; 2
	.db #0x00	; 0
	.db #0x02	; 2
	.db #0x01	; 1
	.db #0x01	; 1
	.db #0x02	; 2
	.db #0x02	; 2
	.db #0x02	; 2
	.db #0x00	; 0
	.db #0x00	; 0
	.db #0x01	; 1
	.db #0x02	; 2
	.db #0x02	; 2
	.db #0x02	; 2
	.db #0x00	; 0
	.db #0x02	; 2
	.db #0x02	; 2
	.db #0x01	; 1
	.db #0x02	; 2
	.db #0x02	; 2
	.db #0x02	; 2
	.db #0x00	; 0
	.db #0x00	; 0
	.db #0x00	; 0
	.db #0x00	; 0
	.db #0x01	; 1
	.db #0x02	; 2
	.db #0x00	; 0
	.db #0x01	; 1
	.db #0x00	; 0
	.db #0x02	; 2
	.db #0x02	; 2
	.db #0x02	; 2
	.db #0x02	; 2
	.db #0x00	; 0
	.db #0x02	; 2
	.db #0x01	; 1
	.db #0x01	; 1
	.db #0x01	; 1
	.db #0x02	; 2
	.db #0x01	; 1
	.db #0x00	; 0
	.db #0x00	; 0
	.db #0x02	; 2
	.db #0x00	; 0
	.db #0x02	; 2
	.db #0x02	; 2
	.db #0x00	; 0
	.db #0x01	; 1
	.db #0x01	; 1
	.db #0x02	; 2
	.db #0x02	; 2
	.db #0x02	; 2
	.db #0x00	; 0
	.db #0x00	; 0
	.db #0x00	; 0
	.db #0x02	; 2
	.db #0x02	; 2
	.db #0x00	; 0
	.db #0x02	; 2
	.db #0x02	; 2
	.db #0x01	; 1
	.db #0x02	; 2
	.db #0x01	; 1
	.db #0x00	; 0
	.db #0x01	; 1
	.db #0x00	; 0
	.db #0x00	; 0
	.db #0x01	; 1
	.db #0x01	; 1
	.db #0x02	; 2
	.db #0x01	; 1
	.db #0x02	; 2
	.db #0x01	; 1
	.db #0x01	; 1
	.db #0x00	; 0
	.db #0x01	; 1
	.db #0x00	; 0
	.db #0x00	; 0
	.db #0x02	; 2
	.db #0x02	; 2
	.db #0x01	; 1
	.db #0x02	; 2
	.db #0x01	; 1
	.db #0x00	; 0
	.db #0x00	; 0
	.db #0x00	; 0
	.db #0x02	; 2
	.db #0x01	; 1
	.db #0x02	; 2
	.db #0x01	; 1
	.db #0x01	; 1
	.db #0x02	; 2
	.db #0x02	; 2
	.db #0x01	; 1
	.db #0x00	; 0
	.db #0x00	; 0
	.db #0x00	; 0
	.db #0x01	; 1
	.db #0x01	; 1
	.db #0x01	; 1
	.db #0x01	; 1
	.db #0x01	; 1
	.db #0x02	; 2
	.db #0x01	; 1
	.db #0x01	; 1
	.db #0x02	; 2
	.db #0x02	; 2
	.db #0x01	; 1
	.db #0x02	; 2
	.db #0x01	; 1
	.db #0x01	; 1
	.db #0x01	; 1
	.db #0x02	; 2
	.db #0x02	; 2
	.db #0x01	; 1
	.db #0x00	; 0
	.db #0x00	; 0
	.db #0x02	; 2
	.db #0x01	; 1
	.db #0x01	; 1
	.db #0x01	; 1
	.db #0x01	; 1
	.db #0x02	; 2
	.db #0x02	; 2
	.db #0x02	; 2
	.db #0x02	; 2
	.db #0x02	; 2
	.db #0x02	; 2
	.db #0x01	; 1
	.db #0x02	; 2
	.db #0x01	; 1
	.db #0x01	; 1
	.db #0x02	; 2
	.db #0x02	; 2
	.db #0x02	; 2
	.db #0x01	; 1
	.db #0x01	; 1
	.db #0x01	; 1
	.db #0x03	; 3
	.db #0x03	; 3
	.db #0x03	; 3
	.db #0x03	; 3
	.db #0x03	; 3
	.db #0x03	; 3
	.db #0x03	; 3
	.db #0x03	; 3
	.db #0x03	; 3
	.db #0x03	; 3
	.db #0x03	; 3
	.db #0x03	; 3
	.db #0x03	; 3
	.db #0x03	; 3
	.db #0x03	; 3
	.db #0x03	; 3
	.db #0x03	; 3
	.db #0x03	; 3
	.db #0x03	; 3
	.db #0x03	; 3
	.db #0x04	; 4
	.db #0x04	; 4
	.db #0x04	; 4
	.db #0x04	; 4
	.db #0x04	; 4
	.db #0x04	; 4
	.db #0x04	; 4
	.db #0x04	; 4
	.db #0x04	; 4
	.db #0x04	; 4
	.db #0x04	; 4
	.db #0x04	; 4
	.db #0x04	; 4
	.db #0x04	; 4
	.db #0x04	; 4
	.db #0x04	; 4
	.db #0x04	; 4
	.db #0x04	; 4
	.db #0x04	; 4
	.db #0x04	; 4
	.db #0x04	; 4
	.db #0x04	; 4
	.db #0x04	; 4
	.db #0x04	; 4
	.db #0x04	; 4
	.db #0x04	; 4
	.db #0x04	; 4
	.db #0x04	; 4
	.db #0x04	; 4
	.db #0x04	; 4
	.db #0x04	; 4
	.db #0x04	; 4
	.db #0x04	; 4
	.db #0x04	; 4
	.db #0x04	; 4
	.db #0x04	; 4
	.db #0x04	; 4
	.db #0x04	; 4
	.db #0x04	; 4
	.db #0x04	; 4
	.db #0x04	; 4
	.db #0x04	; 4
	.db #0x04	; 4
	.db #0x04	; 4
	.db #0x04	; 4
	.db #0x04	; 4
	.db #0x04	; 4
	.db #0x04	; 4
	.db #0x04	; 4
	.db #0x04	; 4
	.db #0x04	; 4
	.db #0x04	; 4
	.db #0x04	; 4
	.db #0x04	; 4
	.db #0x04	; 4
	.db #0x04	; 4
	.db #0x04	; 4
	.db #0x04	; 4
	.db #0x04	; 4
	.db #0x04	; 4
	.db #0x05	; 5
	.db #0x05	; 5
	.db #0x05	; 5
	.db #0x05	; 5
	.db #0x05	; 5
	.db #0x05	; 5
	.db #0x05	; 5
	.db #0x05	; 5
	.db #0x05	; 5
	.db #0x05	; 5
	.db #0x05	; 5
	.db #0x05	; 5
	.db #0x05	; 5
	.db #0x05	; 5
	.db #0x05	; 5
	.db #0x05	; 5
	.db #0x05	; 5
	.db #0x05	; 5
	.db #0x05	; 5
	.db #0x05	; 5
	.db #0x06	; 6
	.db #0x06	; 6
	.db #0x06	; 6
	.db #0x06	; 6
	.db #0x06	; 6
	.db #0x06	; 6
	.db #0x06	; 6
	.db #0x06	; 6
	.db #0x06	; 6
	.db #0x06	; 6
	.db #0x06	; 6
	.db #0x06	; 6
	.db #0x06	; 6
	.db #0x06	; 6
	.db #0x06	; 6
	.db #0x06	; 6
	.db #0x06	; 6
	.db #0x06	; 6
	.db #0x06	; 6
	.db #0x06	; 6
__xinit__map2:
	.db #0x00	; 0
	.db #0x00	; 0
	.db #0x00	; 0
	.db #0x00	; 0
	.db #0x00	; 0
	.db #0x00	; 0
	.db #0x00	; 0
	.db #0x00	; 0
	.db #0x00	; 0
	.db #0x00	; 0
	.db #0x00	; 0
	.db #0x00	; 0
	.db #0x00	; 0
	.db #0x00	; 0
	.db #0x00	; 0
	.db #0x00	; 0
	.db #0x00	; 0
	.db #0x00	; 0
	.db #0x00	; 0
	.db #0x00	; 0
	.db #0x00	; 0
	.db #0x00	; 0
	.db #0x00	; 0
	.db #0x00	; 0
	.db #0x00	; 0
	.db #0x00	; 0
	.db #0x00	; 0
	.db #0x00	; 0
	.db #0x00	; 0
	.db #0x00	; 0
	.db #0x00	; 0
	.db #0x00	; 0
	.db #0x00	; 0
	.db #0x00	; 0
	.db #0x00	; 0
	.db #0x00	; 0
	.db #0x00	; 0
	.db #0x00	; 0
	.db #0x00	; 0
	.db #0x00	; 0
	.db #0x00	; 0
	.db #0x00	; 0
	.db #0x00	; 0
	.db #0x00	; 0
	.db #0x00	; 0
	.db #0x00	; 0
	.db #0x00	; 0
	.db #0x00	; 0
	.db #0x00	; 0
	.db #0x00	; 0
	.db #0x00	; 0
	.db #0x00	; 0
	.db #0x00	; 0
	.db #0x00	; 0
	.db #0x00	; 0
	.db #0x00	; 0
	.db #0x00	; 0
	.db #0x00	; 0
	.db #0x00	; 0
	.db #0x00	; 0
	.db #0x00	; 0
	.db #0x00	; 0
	.db #0x00	; 0
	.db #0x00	; 0
	.db #0x00	; 0
	.db #0x00	; 0
	.db #0x00	; 0
	.db #0x00	; 0
	.db #0x00	; 0
	.db #0x00	; 0
	.db #0x00	; 0
	.db #0x00	; 0
	.db #0x00	; 0
	.db #0x00	; 0
	.db #0x00	; 0
	.db #0x00	; 0
	.db #0x00	; 0
	.db #0x00	; 0
	.db #0x00	; 0
	.db #0x00	; 0
	.db #0x00	; 0
	.db #0x00	; 0
	.db #0x00	; 0
	.db #0x00	; 0
	.db #0x00	; 0
	.db #0x00	; 0
	.db #0x00	; 0
	.db #0x00	; 0
	.db #0x00	; 0
	.db #0x00	; 0
	.db #0x00	; 0
	.db #0x00	; 0
	.db #0x00	; 0
	.db #0x00	; 0
	.db #0x00	; 0
	.db #0x00	; 0
	.db #0x00	; 0
	.db #0x00	; 0
	.db #0x00	; 0
	.db #0x00	; 0
	.db #0x00	; 0
	.db #0x00	; 0
	.db #0x00	; 0
	.db #0x00	; 0
	.db #0x00	; 0
	.db #0x00	; 0
	.db #0x00	; 0
	.db #0x00	; 0
	.db #0x00	; 0
	.db #0x00	; 0
	.db #0x00	; 0
	.db #0x00	; 0
	.db #0x00	; 0
	.db #0x00	; 0
	.db #0x00	; 0
	.db #0x00	; 0
	.db #0x00	; 0
	.db #0x00	; 0
	.db #0x00	; 0
	.db #0x00	; 0
	.db #0x03	; 3
	.db #0x03	; 3
	.db #0x03	; 3
	.db #0x03	; 3
	.db #0x03	; 3
	.db #0x03	; 3
	.db #0x03	; 3
	.db #0x03	; 3
	.db #0x03	; 3
	.db #0x03	; 3
	.db #0x03	; 3
	.db #0x03	; 3
	.db #0x03	; 3
	.db #0x03	; 3
	.db #0x03	; 3
	.db #0x03	; 3
	.db #0x03	; 3
	.db #0x03	; 3
	.db #0x03	; 3
	.db #0x03	; 3
	.db #0x04	; 4
	.db #0x04	; 4
	.db #0x04	; 4
	.db #0x04	; 4
	.db #0x04	; 4
	.db #0x04	; 4
	.db #0x04	; 4
	.db #0x04	; 4
	.db #0x04	; 4
	.db #0x04	; 4
	.db #0x04	; 4
	.db #0x04	; 4
	.db #0x04	; 4
	.db #0x04	; 4
	.db #0x04	; 4
	.db #0x04	; 4
	.db #0x04	; 4
	.db #0x04	; 4
	.db #0x04	; 4
	.db #0x04	; 4
	.db #0x04	; 4
	.db #0x04	; 4
	.db #0x04	; 4
	.db #0x04	; 4
	.db #0x04	; 4
	.db #0x04	; 4
	.db #0x04	; 4
	.db #0x04	; 4
	.db #0x04	; 4
	.db #0x04	; 4
	.db #0x04	; 4
	.db #0x04	; 4
	.db #0x04	; 4
	.db #0x04	; 4
	.db #0x04	; 4
	.db #0x04	; 4
	.db #0x04	; 4
	.db #0x04	; 4
	.db #0x04	; 4
	.db #0x04	; 4
	.db #0x05	; 5
	.db #0x05	; 5
	.db #0x05	; 5
	.db #0x05	; 5
	.db #0x05	; 5
	.db #0x05	; 5
	.db #0x05	; 5
	.db #0x05	; 5
	.db #0x05	; 5
	.db #0x05	; 5
	.db #0x05	; 5
	.db #0x05	; 5
	.db #0x05	; 5
	.db #0x05	; 5
	.db #0x05	; 5
	.db #0x05	; 5
	.db #0x05	; 5
	.db #0x05	; 5
	.db #0x05	; 5
	.db #0x05	; 5
	.db #0x06	; 6
	.db #0x06	; 6
	.db #0x06	; 6
	.db #0x06	; 6
	.db #0x06	; 6
	.db #0x06	; 6
	.db #0x06	; 6
	.db #0x06	; 6
	.db #0x06	; 6
	.db #0x06	; 6
	.db #0x06	; 6
	.db #0x06	; 6
	.db #0x06	; 6
	.db #0x06	; 6
	.db #0x06	; 6
	.db #0x06	; 6
	.db #0x06	; 6
	.db #0x06	; 6
	.db #0x06	; 6
	.db #0x06	; 6
	.db #0x06	; 6
	.db #0x06	; 6
	.db #0x06	; 6
	.db #0x06	; 6
	.db #0x06	; 6
	.db #0x06	; 6
	.db #0x06	; 6
	.db #0x06	; 6
	.db #0x06	; 6
	.db #0x06	; 6
	.db #0x06	; 6
	.db #0x06	; 6
	.db #0x06	; 6
	.db #0x06	; 6
	.db #0x06	; 6
	.db #0x06	; 6
	.db #0x06	; 6
	.db #0x06	; 6
	.db #0x06	; 6
	.db #0x06	; 6
	.db #0x06	; 6
	.db #0x06	; 6
	.db #0x06	; 6
	.db #0x06	; 6
	.db #0x06	; 6
	.db #0x06	; 6
	.db #0x06	; 6
	.db #0x06	; 6
	.db #0x06	; 6
	.db #0x06	; 6
	.db #0x06	; 6
	.db #0x06	; 6
	.db #0x06	; 6
	.db #0x06	; 6
	.db #0x06	; 6
	.db #0x06	; 6
	.db #0x06	; 6
	.db #0x06	; 6
	.db #0x06	; 6
	.db #0x06	; 6
	.db #0x06	; 6
	.db #0x06	; 6
	.db #0x06	; 6
	.db #0x06	; 6
	.db #0x06	; 6
	.db #0x06	; 6
	.db #0x06	; 6
	.db #0x06	; 6
	.db #0x06	; 6
	.db #0x06	; 6
	.db #0x06	; 6
	.db #0x06	; 6
	.db #0x06	; 6
	.db #0x06	; 6
	.db #0x06	; 6
	.db #0x06	; 6
	.db #0x06	; 6
	.db #0x06	; 6
	.db #0x06	; 6
	.db #0x06	; 6
	.db #0x06	; 6
	.db #0x06	; 6
	.db #0x06	; 6
	.db #0x06	; 6
	.db #0x06	; 6
	.db #0x06	; 6
	.db #0x06	; 6
	.db #0x06	; 6
	.db #0x06	; 6
	.db #0x06	; 6
	.db #0x06	; 6
	.db #0x06	; 6
	.db #0x06	; 6
	.db #0x06	; 6
	.db #0x06	; 6
	.db #0x06	; 6
	.db #0x06	; 6
	.db #0x06	; 6
	.db #0x06	; 6
	.db #0x06	; 6
	.db #0x06	; 6
	.db #0x06	; 6
	.db #0x06	; 6
	.db #0x06	; 6
	.db #0x06	; 6
	.db #0x06	; 6
	.db #0x06	; 6
	.db #0x06	; 6
	.db #0x06	; 6
	.db #0x06	; 6
	.db #0x06	; 6
	.db #0x06	; 6
	.db #0x06	; 6
	.db #0x06	; 6
	.db #0x06	; 6
	.db #0x06	; 6
	.db #0x06	; 6
	.db #0x06	; 6
	.db #0x06	; 6
	.db #0x06	; 6
	.db #0x06	; 6
	.db #0x06	; 6
	.db #0x06	; 6
	.db #0x06	; 6
	.db #0x06	; 6
	.db #0x06	; 6
	.db #0x06	; 6
	.db #0x06	; 6
	.db #0x06	; 6
	.db #0x06	; 6
	.db #0x06	; 6
	.db #0x06	; 6
	.db #0x06	; 6
	.db #0x06	; 6
	.db #0x06	; 6
	.db #0x06	; 6
	.db #0x06	; 6
	.db #0x06	; 6
	.db #0x06	; 6
	.db #0x06	; 6
	.db #0x06	; 6
	.db #0x06	; 6
	.db #0x06	; 6
	.db #0x06	; 6
	.db #0x06	; 6
	.db #0x06	; 6
	.db #0x06	; 6
	.db #0x06	; 6
	.db #0x06	; 6
	.db #0x06	; 6
	.db #0x06	; 6
	.db #0x06	; 6
	.db #0x06	; 6
	.db #0x06	; 6
	.db #0x06	; 6
	.db #0x06	; 6
	.db #0x06	; 6
	.db #0x06	; 6
	.db #0x06	; 6
	.db #0x06	; 6
__xinit__player_sprites:
	.db #0x7e	; 126
	.db #0x7e	; 126
	.db #0xff	; 255
	.db #0x81	; 129
	.db #0xff	; 255
	.db #0xa5	; 165
	.db #0xff	; 255
	.db #0xa5	; 165
	.db #0xdb	; 219
	.db #0xa5	; 165
	.db #0xff	; 255
	.db #0x99	; 153
	.db #0xff	; 255
	.db #0x81	; 129
	.db #0x7e	; 126
	.db #0x7e	; 126
	.db #0x7e	; 126
	.db #0x7e	; 126
	.db #0xff	; 255
	.db #0x81	; 129
	.db #0xff	; 255
	.db #0xa1	; 161
	.db #0xff	; 255
	.db #0xa1	; 161
	.db #0xdf	; 223
	.db #0xa1	; 161
	.db #0xff	; 255
	.db #0xc1	; 193
	.db #0xff	; 255
	.db #0x81	; 129
	.db #0x7e	; 126
	.db #0x7e	; 126
	.db #0x7e	; 126
	.db #0x7e	; 126
	.db #0xff	; 255
	.db #0x81	; 129
	.db #0xff	; 255
	.db #0x85	; 133
	.db #0xff	; 255
	.db #0x85	; 133
	.db #0xfb	; 251
	.db #0x85	; 133
	.db #0xff	; 255
	.db #0x83	; 131
	.db #0xff	; 255
	.db #0x81	; 129
	.db #0x7e	; 126
	.db #0x7e	; 126
	.db #0x7e	; 126
	.db #0x7e	; 126
	.db #0xff	; 255
	.db #0x81	; 129
	.db #0xff	; 255
	.db #0x81	; 129
	.db #0xff	; 255
	.db #0x81	; 129
	.db #0xff	; 255
	.db #0x81	; 129
	.db #0xff	; 255
	.db #0x81	; 129
	.db #0xff	; 255
	.db #0x81	; 129
	.db #0x7e	; 126
	.db #0x7e	; 126
	.db #0x00	; 0
	.db #0x00	; 0
	.db #0x00	; 0
	.db #0x00	; 0
	.db #0x00	; 0
	.db #0x00	; 0
	.db #0x00	; 0
	.db #0x00	; 0
	.db #0x00	; 0
	.db #0x00	; 0
	.db #0x00	; 0
	.db #0x00	; 0
	.db #0x00	; 0
	.db #0x00	; 0
	.db #0x00	; 0
	.db #0x00	; 0
	.area _CABS (ABS)
